target datalayout = "e-m:e-p270:32:32-p271:32:32-p272:64:64-i64:64-i128:128-f80:128-n8:16:32:64-S128"
target triple = "x86_64-pc-linux-gnu"

%"class.boost::urls::ipv6_address" = type { %"struct.std::array" }
%"struct.std::array" = type { [16 x i8] }

; Function Attrs: mustprogress nounwind uwtable
define linkonce_odr hidden noundef nonnull align 1 dereferenceable(1) ptr @_ZNSt14__array_traitsIhLm16EE6_S_refERA16_Khm(ptr noundef nonnull align 1 dereferenceable(16) %0, i64 noundef %1) #2 comdat align 2 {
  %3 = alloca ptr, align 8
  %4 = alloca i64, align 8
  store ptr %0, ptr %3, align 8, !tbaa !7
  store i64 %1, ptr %4, align 8, !tbaa !17
  %5 = load ptr, ptr %3, align 8, !tbaa !7
  %6 = load i64, ptr %4, align 8, !tbaa !17
  %7 = getelementptr inbounds nuw [16 x i8], ptr %5, i64 0, i64 %6
  ret ptr %7
}

; Function Attrs: mustprogress nounwind uwtable
define linkonce_odr hidden noundef nonnull align 1 dereferenceable(1) ptr @_ZNKSt5arrayIhLm16EEixEm(ptr noundef nonnull align 1 dereferenceable(16) %0, i64 noundef %1) #2 comdat align 2 {
  %3 = alloca ptr, align 8
  %4 = alloca i64, align 8
  store ptr %0, ptr %3, align 8, !tbaa !7
  store i64 %1, ptr %4, align 8, !tbaa !17
  %5 = load ptr, ptr %3, align 8
  %6 = getelementptr inbounds nuw %"struct.std::array", ptr %5, i32 0, i32 0
  %7 = load i64, ptr %4, align 8, !tbaa !17
  %8 = call noundef nonnull align 1 dereferenceable(1) ptr @_ZNSt14__array_traitsIhLm16EE6_S_refERA16_Khm(ptr noundef nonnull align 1 dereferenceable(16) %6, i64 noundef %7) #16
  ret ptr %8
}

; Function Attrs: mustprogress nounwind uwtable
define noundef zeroext i1 @_ZNK5boost4urls12ipv6_address12is_v4_mappedEv(ptr noundef nonnull align 1 dereferenceable(16) %0) #2 align 2 {
  %2 = alloca ptr, align 8
  store ptr %0, ptr %2, align 8, !tbaa !7
  %3 = load ptr, ptr %2, align 8
  %4 = getelementptr inbounds nuw %"class.boost::urls::ipv6_address", ptr %3, i32 0, i32 0
  %5 = call noundef nonnull align 1 dereferenceable(1) ptr @_ZNKSt5arrayIhLm16EEixEm(ptr noundef nonnull align 1 dereferenceable(16) %4, i64 noundef 0) #16
  %6 = load i8, ptr %5, align 1, !tbaa !16
  %7 = zext i8 %6 to i32
  %8 = icmp eq i32 %7, 0
  br i1 %8, label %9, label %75

9:                                                ; preds = %1
  %10 = getelementptr inbounds nuw %"class.boost::urls::ipv6_address", ptr %3, i32 0, i32 0
  %11 = call noundef nonnull align 1 dereferenceable(1) ptr @_ZNKSt5arrayIhLm16EEixEm(ptr noundef nonnull align 1 dereferenceable(16) %10, i64 noundef 1) #16
  %12 = load i8, ptr %11, align 1, !tbaa !16
  %13 = zext i8 %12 to i32
  %14 = icmp eq i32 %13, 0
  br i1 %14, label %15, label %75

15:                                               ; preds = %9
  %16 = getelementptr inbounds nuw %"class.boost::urls::ipv6_address", ptr %3, i32 0, i32 0
  %17 = call noundef nonnull align 1 dereferenceable(1) ptr @_ZNKSt5arrayIhLm16EEixEm(ptr noundef nonnull align 1 dereferenceable(16) %16, i64 noundef 2) #16
  %18 = load i8, ptr %17, align 1, !tbaa !16
  %19 = zext i8 %18 to i32
  %20 = icmp eq i32 %19, 0
  br i1 %20, label %21, label %75

21:                                               ; preds = %15
  %22 = getelementptr inbounds nuw %"class.boost::urls::ipv6_address", ptr %3, i32 0, i32 0
  %23 = call noundef nonnull align 1 dereferenceable(1) ptr @_ZNKSt5arrayIhLm16EEixEm(ptr noundef nonnull align 1 dereferenceable(16) %22, i64 noundef 3) #16
  %24 = load i8, ptr %23, align 1, !tbaa !16
  %25 = zext i8 %24 to i32
  %26 = icmp eq i32 %25, 0
  br i1 %26, label %27, label %75

27:                                               ; preds = %21
  %28 = getelementptr inbounds nuw %"class.boost::urls::ipv6_address", ptr %3, i32 0, i32 0
  %29 = call noundef nonnull align 1 dereferenceable(1) ptr @_ZNKSt5arrayIhLm16EEixEm(ptr noundef nonnull align 1 dereferenceable(16) %28, i64 noundef 4) #16
  %30 = load i8, ptr %29, align 1, !tbaa !16
  %31 = zext i8 %30 to i32
  %32 = icmp eq i32 %31, 0
  br i1 %32, label %33, label %75

33:                                               ; preds = %27
  %34 = getelementptr inbounds nuw %"class.boost::urls::ipv6_address", ptr %3, i32 0, i32 0
  %35 = call noundef nonnull align 1 dereferenceable(1) ptr @_ZNKSt5arrayIhLm16EEixEm(ptr noundef nonnull align 1 dereferenceable(16) %34, i64 noundef 5) #16
  %36 = load i8, ptr %35, align 1, !tbaa !16
  %37 = zext i8 %36 to i32
  %38 = icmp eq i32 %37, 0
  br i1 %38, label %39, label %75

39:                                               ; preds = %33
  %40 = getelementptr inbounds nuw %"class.boost::urls::ipv6_address", ptr %3, i32 0, i32 0
  %41 = call noundef nonnull align 1 dereferenceable(1) ptr @_ZNKSt5arrayIhLm16EEixEm(ptr noundef nonnull align 1 dereferenceable(16) %40, i64 noundef 6) #16
  %42 = load i8, ptr %41, align 1, !tbaa !16
  %43 = zext i8 %42 to i32
  %44 = icmp eq i32 %43, 0
  br i1 %44, label %45, label %75

45:                                               ; preds = %39
  %46 = getelementptr inbounds nuw %"class.boost::urls::ipv6_address", ptr %3, i32 0, i32 0
  %47 = call noundef nonnull align 1 dereferenceable(1) ptr @_ZNKSt5arrayIhLm16EEixEm(ptr noundef nonnull align 1 dereferenceable(16) %46, i64 noundef 7) #16
  %48 = load i8, ptr %47, align 1, !tbaa !16
  %49 = zext i8 %48 to i32
  %50 = icmp eq i32 %49, 0
  br i1 %50, label %51, label %75

51:                                               ; preds = %45
  %52 = getelementptr inbounds nuw %"class.boost::urls::ipv6_address", ptr %3, i32 0, i32 0
  %53 = call noundef nonnull align 1 dereferenceable(1) ptr @_ZNKSt5arrayIhLm16EEixEm(ptr noundef nonnull align 1 dereferenceable(16) %52, i64 noundef 8) #16
  %54 = load i8, ptr %53, align 1, !tbaa !16
  %55 = zext i8 %54 to i32
  %56 = icmp eq i32 %55, 0
  br i1 %56, label %57, label %75

57:                                               ; preds = %51
  %58 = getelementptr inbounds nuw %"class.boost::urls::ipv6_address", ptr %3, i32 0, i32 0
  %59 = call noundef nonnull align 1 dereferenceable(1) ptr @_ZNKSt5arrayIhLm16EEixEm(ptr noundef nonnull align 1 dereferenceable(16) %58, i64 noundef 9) #16
  %60 = load i8, ptr %59, align 1, !tbaa !16
  %61 = zext i8 %60 to i32
  %62 = icmp eq i32 %61, 0
  br i1 %62, label %63, label %75

63:                                               ; preds = %57
  %64 = getelementptr inbounds nuw %"class.boost::urls::ipv6_address", ptr %3, i32 0, i32 0
  %65 = call noundef nonnull align 1 dereferenceable(1) ptr @_ZNKSt5arrayIhLm16EEixEm(ptr noundef nonnull align 1 dereferenceable(16) %64, i64 noundef 10) #16
  %66 = load i8, ptr %65, align 1, !tbaa !16
  %67 = zext i8 %66 to i32
  %68 = icmp eq i32 %67, 255
  br i1 %68, label %69, label %75

69:                                               ; preds = %63
  %70 = getelementptr inbounds nuw %"class.boost::urls::ipv6_address", ptr %3, i32 0, i32 0
  %71 = call noundef nonnull align 1 dereferenceable(1) ptr @_ZNKSt5arrayIhLm16EEixEm(ptr noundef nonnull align 1 dereferenceable(16) %70, i64 noundef 11) #16
  %72 = load i8, ptr %71, align 1, !tbaa !16
  %73 = zext i8 %72 to i32
  %74 = icmp eq i32 %73, 255
  br label %75

75:                                               ; preds = %69, %63, %57, %51, %45, %39, %33, %27, %21, %15, %9, %1
  %76 = phi i1 [ false, %63 ], [ false, %57 ], [ false, %51 ], [ false, %45 ], [ false, %39 ], [ false, %33 ], [ false, %27 ], [ false, %21 ], [ false, %15 ], [ false, %9 ], [ false, %1 ], [ %74, %69 ]
  ret i1 %76
}