; Function Attrs: mustprogress nofree norecurse nosync nounwind willreturn memory(argmem: read) uwtable
define noundef zeroext i1 @_ZNK5boost4urls12ipv6_address12is_v4_mappedEv(ptr nocapture noundef nonnull readonly align 1 dereferenceable(16) %0) local_unnamed_addr #10 align 2 {
  %2 = load i8, ptr %0, align 1, !tbaa !3
  %3 = icmp eq i8 %2, 0
  %4 = getelementptr inbounds nuw i8, ptr %0, i64 1
  %5 = load i8, ptr %4, align 1
  %6 = icmp eq i8 %5, 0
  %or.cond = select i1 %3, i1 %6, i1 false
  %7 = getelementptr inbounds nuw i8, ptr %0, i64 2
  %8 = load i8, ptr %7, align 1
  %9 = icmp eq i8 %8, 0
  %or.cond5 = select i1 %or.cond, i1 %9, i1 false
  %10 = getelementptr inbounds nuw i8, ptr %0, i64 3
  %11 = load i8, ptr %10, align 1
  %12 = icmp eq i8 %11, 0
  %or.cond8 = select i1 %or.cond5, i1 %12, i1 false
  %13 = getelementptr inbounds nuw i8, ptr %0, i64 4
  %14 = load i8, ptr %13, align 1
  %15 = icmp eq i8 %14, 0
  %or.cond11 = select i1 %or.cond8, i1 %15, i1 false
  %16 = getelementptr inbounds nuw i8, ptr %0, i64 5
  %17 = load i8, ptr %16, align 1
  %18 = icmp eq i8 %17, 0
  %or.cond14 = select i1 %or.cond11, i1 %18, i1 false
  %19 = getelementptr inbounds nuw i8, ptr %0, i64 6
  %20 = load i8, ptr %19, align 1
  %21 = icmp eq i8 %20, 0
  %or.cond17 = select i1 %or.cond14, i1 %21, i1 false
  %22 = getelementptr inbounds nuw i8, ptr %0, i64 7
  %23 = load i8, ptr %22, align 1
  %24 = icmp eq i8 %23, 0
  %or.cond20 = select i1 %or.cond17, i1 %24, i1 false
  %25 = getelementptr inbounds nuw i8, ptr %0, i64 8
  %26 = load i8, ptr %25, align 1
  %27 = icmp eq i8 %26, 0
  %or.cond23 = select i1 %or.cond20, i1 %27, i1 false
  %28 = getelementptr inbounds nuw i8, ptr %0, i64 9
  %29 = load i8, ptr %28, align 1
  %30 = icmp eq i8 %29, 0
  %or.cond26 = select i1 %or.cond23, i1 %30, i1 false
  %31 = getelementptr inbounds nuw i8, ptr %0, i64 10
  %32 = load i8, ptr %31, align 1
  %33 = icmp eq i8 %32, -1
  %or.cond29 = select i1 %or.cond26, i1 %33, i1 false
  br i1 %or.cond29, label %34, label %38

34:                                               ; preds = %1
  %35 = getelementptr inbounds nuw i8, ptr %0, i64 11
  %36 = load i8, ptr %35, align 1, !tbaa !3
  %37 = icmp eq i8 %36, -1
  br label %38

38:                                               ; preds = %34, %1
  %39 = phi i1 [ false, %1 ], [ %37, %34 ]
  ret i1 %39
}